; ModuleID = 'source-C-CXX/12/1410.c'
source_filename = "source-C-CXX/12/1410.c"
target datalayout = "e-m:e-p270:32:32-p271:32:32-p272:64:64-i64:64-f80:128-n8:16:32:64-S128"
target triple = "x86_64-pc-linux-gnu"

@.str = private unnamed_addr constant [3 x i8] c"%d\00", align 1
@.str.1 = private unnamed_addr constant [4 x i8] c" %d\00", align 1

; Function Attrs: nofree nounwind sspstrong uwtable
define dso_local i32 @main() local_unnamed_addr #0 {
  %1 = alloca [20002 x i32], align 16
  %2 = alloca i32, align 4
  %3 = bitcast [20002 x i32]* %1 to i8*
  call void @llvm.lifetime.start.p0i8(i64 80008, i8* nonnull %3) #4
  call void @llvm.memset.p0i8.i64(i8* noundef nonnull align 16 dereferenceable(80008) %3, i8 0, i64 80008, i1 false)
  %4 = getelementptr inbounds [20002 x i32], [20002 x i32]* %1, i64 0, i64 0
  store i32 1, i32* %4, align 16
  %5 = bitcast i32* %2 to i8*
  call void @llvm.lifetime.start.p0i8(i64 4, i8* nonnull %5) #4
  %6 = call i32 (i8*, ...) @__isoc99_scanf(i8* getelementptr inbounds ([3 x i8], [3 x i8]* @.str, i64 0, i64 0), i32* nonnull %2)
  %7 = getelementptr inbounds [20002 x i32], [20002 x i32]* %1, i64 0, i64 1
  %8 = call i32 (i8*, ...) @__isoc99_scanf(i8* getelementptr inbounds ([3 x i8], [3 x i8]* @.str, i64 0, i64 0), i32* nonnull %7)
  %9 = load i32, i32* %7, align 4, !tbaa !5
  %10 = call i32 (i8*, ...) @printf(i8* nonnull dereferenceable(1) getelementptr inbounds ([3 x i8], [3 x i8]* @.str, i64 0, i64 0), i32 %9)
  %11 = load i32, i32* %2, align 4, !tbaa !5
  %12 = icmp slt i32 %11, 2
  br i1 %12, label %45, label %13

13:                                               ; preds = %0, %39
  %14 = phi i64 [ %40, %39 ], [ 2, %0 ]
  %15 = phi i32 [ %44, %39 ], [ 1, %0 ]
  %16 = getelementptr inbounds [20002 x i32], [20002 x i32]* %1, i64 0, i64 %14
  %17 = call i32 (i8*, ...) @__isoc99_scanf(i8* getelementptr inbounds ([3 x i8], [3 x i8]* @.str, i64 0, i64 0), i32* nonnull %16)
  %18 = add nsw i64 %14, -1
  %19 = load i32, i32* %16, align 4, !tbaa !5
  %20 = trunc i64 %18 to i32
  br label %21

21:                                               ; preds = %13, %28
  %22 = phi i32 [ 0, %13 ], [ %29, %28 ]
  %23 = phi i32 [ %20, %13 ], [ %30, %28 ]
  %24 = zext i32 %23 to i64
  %25 = getelementptr inbounds [20002 x i32], [20002 x i32]* %1, i64 0, i64 %24
  %26 = load i32, i32* %25, align 4, !tbaa !5
  %27 = icmp eq i32 %19, %26
  br i1 %27, label %32, label %28

28:                                               ; preds = %21
  %29 = add nuw nsw i32 %22, 1
  %30 = add nsw i32 %23, -1
  %31 = icmp eq i32 %29, %15
  br i1 %31, label %32, label %21, !llvm.loop !9

32:                                               ; preds = %28, %21
  %33 = phi i32 [ %15, %28 ], [ %22, %21 ]
  %34 = zext i32 %33 to i64
  %35 = icmp eq i64 %18, %34
  br i1 %35, label %36, label %39

36:                                               ; preds = %32
  %37 = load i32, i32* %16, align 4, !tbaa !5
  %38 = call i32 (i8*, ...) @printf(i8* nonnull dereferenceable(1) getelementptr inbounds ([4 x i8], [4 x i8]* @.str.1, i64 0, i64 0), i32 %37)
  br label %39

39:                                               ; preds = %32, %36
  %40 = add nuw nsw i64 %14, 1
  %41 = load i32, i32* %2, align 4, !tbaa !5
  %42 = sext i32 %41 to i64
  %43 = icmp slt i64 %14, %42
  %44 = add nuw nsw i32 %15, 1
  br i1 %43, label %13, label %45, !llvm.loop !11

45:                                               ; preds = %39, %0
  call void @llvm.lifetime.end.p0i8(i64 4, i8* nonnull %5) #4
  call void @llvm.lifetime.end.p0i8(i64 80008, i8* nonnull %3) #4
  ret i32 0
}

; Function Attrs: argmemonly mustprogress nofree nosync nounwind willreturn
declare void @llvm.lifetime.start.p0i8(i64 immarg, i8* nocapture) #1

; Function Attrs: argmemonly mustprogress nofree nounwind willreturn writeonly
declare void @llvm.memset.p0i8.i64(i8* nocapture writeonly, i8, i64, i1 immarg) #2

; Function Attrs: nofree nounwind
declare noundef i32 @__isoc99_scanf(i8* nocapture noundef readonly, ...) local_unnamed_addr #3

; Function Attrs: nofree nounwind
declare noundef i32 @printf(i8* nocapture noundef readonly, ...) local_unnamed_addr #3

; Function Attrs: argmemonly mustprogress nofree nosync nounwind willreturn
declare void @llvm.lifetime.end.p0i8(i64 immarg, i8* nocapture) #1


!llvm.module.flags = !{!0, !1, !2, !3}
!llvm.ident = !{!4}

!0 = !{i32 1, !"wchar_size", i32 4}
!1 = !{i32 7, !"PIC Level", i32 2}
!2 = !{i32 7, !"PIE Level", i32 2}
!3 = !{i32 7, !"uwtable", i32 1}
!4 = !{!"clang version 13.0.0"}
!5 = !{!6, !6, i64 0}
!6 = !{!"int", !7, i64 0}
!7 = !{!"omnipotent char", !8, i64 0}
!8 = !{!"Simple C/C++ TBAA"}
!9 = distinct !{!9, !10}
!10 = !{!"llvm.loop.mustprogress"}
!11 = distinct !{!11, !10}
